; Function Attrs: nounwind uwtable
define ptr @l_Nat_allM_loop___rarg___lambda__1(ptr noundef %0, ptr noundef %1, ptr noundef %2, ptr noundef %3, i8 noundef zeroext %4) local_unnamed_addr #0 {
  %6 = icmp eq i8 %4, 0
  br i1 %6, label %7, label %63

7:                                                ; preds = %5
  %8 = ptrtoint ptr %2 to i64
  %9 = and i64 %8, 1
  %.not = icmp eq i64 %9, 0
  br i1 %.not, label %10, label %lean_dec.exit21

10:                                               ; preds = %7
  %11 = load i32, ptr %2, align 4, !tbaa !9
  %12 = icmp sgt i32 %11, 1
  br i1 %12, label %13, label %15, !prof !12

13:                                               ; preds = %10
  %14 = add nsw i32 %11, -1
  store i32 %14, ptr %2, align 4, !tbaa !9
  br label %lean_dec.exit21

15:                                               ; preds = %10
  %.not.i = icmp eq i32 %11, 0
  br i1 %.not.i, label %lean_dec.exit21, label %16

16:                                               ; preds = %15
  tail call void @lean_dec_ref_cold(ptr noundef nonnull %2) #3
  br label %lean_dec.exit21

lean_dec.exit21:                                  ; preds = %16, %15, %13, %7
  %17 = ptrtoint ptr %1 to i64
  %18 = and i64 %17, 1
  %.not32 = icmp eq i64 %18, 0
  br i1 %.not32, label %19, label %lean_dec.exit20

19:                                               ; preds = %lean_dec.exit21
  %20 = load i32, ptr %1, align 4, !tbaa !9
  %21 = icmp sgt i32 %20, 1
  br i1 %21, label %22, label %24, !prof !12

22:                                               ; preds = %19
  %23 = add nsw i32 %20, -1
  store i32 %23, ptr %1, align 4, !tbaa !9
  br label %lean_dec.exit20

24:                                               ; preds = %19
  %.not.i22 = icmp eq i32 %20, 0
  br i1 %.not.i22, label %lean_dec.exit20, label %25

25:                                               ; preds = %24
  tail call void @lean_dec_ref_cold(ptr noundef nonnull %1) #3
  br label %lean_dec.exit20

lean_dec.exit20:                                  ; preds = %25, %24, %22, %lean_dec.exit21
  %26 = getelementptr inbounds nuw i8, ptr %0, i64 8
  %27 = load ptr, ptr %26, align 8, !tbaa !5
  %28 = ptrtoint ptr %27 to i64
  %29 = and i64 %28, 1
  %.not33 = icmp eq i64 %29, 0
  br i1 %.not33, label %30, label %lean_inc.exit18

30:                                               ; preds = %lean_dec.exit20
  %.val.i = load i32, ptr %27, align 4, !tbaa !9
  %31 = icmp sgt i32 %.val.i, 0
  br i1 %31, label %32, label %34, !prof !12

32:                                               ; preds = %30
  %33 = add nuw i32 %.val.i, 1
  store i32 %33, ptr %27, align 4, !tbaa !9
  br label %lean_inc.exit18

34:                                               ; preds = %30
  %.not.i28 = icmp eq i32 %.val.i, 0
  br i1 %.not.i28, label %lean_inc.exit18, label %35

35:                                               ; preds = %34
  tail call void @lean_inc_ref_cold(ptr noundef nonnull %27) #3
  br label %lean_inc.exit18

lean_inc.exit18:                                  ; preds = %35, %34, %32, %lean_dec.exit20
  %36 = ptrtoint ptr %0 to i64
  %37 = and i64 %36, 1
  %.not34 = icmp eq i64 %37, 0
  br i1 %.not34, label %38, label %lean_dec.exit19

38:                                               ; preds = %lean_inc.exit18
  %39 = load i32, ptr %0, align 4, !tbaa !9
  %40 = icmp sgt i32 %39, 1
  br i1 %40, label %41, label %43, !prof !12

41:                                               ; preds = %38
  %42 = add nsw i32 %39, -1
  store i32 %42, ptr %0, align 4, !tbaa !9
  br label %lean_dec.exit19

43:                                               ; preds = %38
  %.not.i24 = icmp eq i32 %39, 0
  br i1 %.not.i24, label %lean_dec.exit19, label %44

44:                                               ; preds = %43
  tail call void @lean_dec_ref_cold(ptr noundef nonnull %0) #3
  br label %lean_dec.exit19

lean_dec.exit19:                                  ; preds = %44, %43, %41, %lean_inc.exit18
  %45 = getelementptr inbounds nuw i8, ptr %27, i64 16
  %46 = load ptr, ptr %45, align 8, !tbaa !5
  %47 = ptrtoint ptr %46 to i64
  %48 = and i64 %47, 1
  %.not35 = icmp eq i64 %48, 0
  br i1 %.not35, label %49, label %lean_inc.exit

49:                                               ; preds = %lean_dec.exit19
  %.val.i29 = load i32, ptr %46, align 4, !tbaa !9
  %50 = icmp sgt i32 %.val.i29, 0
  br i1 %50, label %51, label %53, !prof !12

51:                                               ; preds = %49
  %52 = add nuw i32 %.val.i29, 1
  store i32 %52, ptr %46, align 4, !tbaa !9
  br label %lean_inc.exit

53:                                               ; preds = %49
  %.not.i30 = icmp eq i32 %.val.i29, 0
  br i1 %.not.i30, label %lean_inc.exit, label %54

54:                                               ; preds = %53
  tail call void @lean_inc_ref_cold(ptr noundef nonnull %46) #3
  br label %lean_inc.exit

lean_inc.exit:                                    ; preds = %54, %53, %51, %lean_dec.exit19
  br i1 %.not33, label %55, label %lean_dec.exit

55:                                               ; preds = %lean_inc.exit
  %56 = load i32, ptr %27, align 4, !tbaa !9
  %57 = icmp sgt i32 %56, 1
  br i1 %57, label %58, label %60, !prof !12

58:                                               ; preds = %55
  %59 = add nsw i32 %56, -1
  store i32 %59, ptr %27, align 4, !tbaa !9
  br label %lean_dec.exit

60:                                               ; preds = %55
  %.not.i26 = icmp eq i32 %56, 0
  br i1 %.not.i26, label %lean_dec.exit, label %61

61:                                               ; preds = %60
  tail call void @lean_dec_ref_cold(ptr noundef nonnull %27) #3
  br label %lean_dec.exit

lean_dec.exit:                                    ; preds = %61, %60, %58, %lean_inc.exit
  %62 = tail call ptr @lean_apply_2(ptr noundef %46, ptr noundef nonnull inttoptr (i64 1 to ptr), ptr noundef nonnull inttoptr (i64 1 to ptr)) #3
  br label %65

63:                                               ; preds = %5
  %64 = tail call ptr @l_Nat_allM_loop___rarg(ptr noundef %0, ptr noundef %1, ptr noundef %2, ptr noundef %3, ptr nonnull poison)
  br label %65

65:                                               ; preds = %63, %lean_dec.exit
  %.0 = phi ptr [ %62, %lean_dec.exit ], [ %64, %63 ]
  ret ptr %.0
}